Certificate:
    Data:
        Version: 3 (0x2)
        Serial Number: 0 (0x0)
    Signature Algorithm: sha1WithRSAEncryption
        Issuer: C=KR, ST=SEOUL, L=SOCHO, O=SearchCast, OU=Search Dev, CN=NTT_Test_CA/emailAddress=ntt@searchcast.net
        Validity
            Not Before: Oct 26 01:36:37 2016 GMT
            Not After : Oct 26 01:36:37 2017 GMT
        Subject: C=KR, ST=SEOUL, O=SearchCast, OU=Web Dev, CN=NTT_Test_CA/emailAddress=ntt@searchcast.net
        Subject Public Key Info:
            Public Key Algorithm: rsaEncryption
                Public-Key: (1024 bit)
                Modulus:
                    00:b2:b3:a3:ab:7a:b2:99:45:d4:16:2c:76:d7:70:
                    7d:78:3c:f4:b5:2c:1a:0b:ea:76:4a:49:9b:a5:05:
                    80:22:7d:eb:84:6a:22:f9:98:fe:60:6b:70:d5:66:
                    58:39:ce:71:fe:1f:31:d4:d2:55:e2:a1:fa:f6:20:
                    18:da:03:bf:dd:9a:12:6e:48:76:ea:38:45:8d:e3:
                    68:02:6c:bc:6d:c2:f0:e5:20:30:e0:58:f7:8d:7d:
                    c7:5c:d9:ef:fb:2e:b9:80:76:f3:0b:df:21:92:6d:
                    e3:4f:e8:d8:9c:3b:ab:0d:c4:3a:94:22:41:83:6c:
                    38:c8:ec:fa:60:99:c0:eb:e1
                Exponent: 65537 (0x10001)
        X509v3 extensions:
            X509v3 Basic Constraints: 
                CA:FALSE
    Signature Algorithm: sha1WithRSAEncryption
         c8:84:dc:68:bf:97:28:71:62:3b:01:53:93:36:60:46:66:4d:
         8c:8e:0a:c0:18:c4:d8:cf:71:29:0d:52:9f:00:4d:f1:42:28:
         60:c4:df:4c:12:d7:c0:58:c7:1b:99:fe:55:0d:69:f6:43:c4:
         a1:87:b3:94:cc:84:69:bb:78:09:58:10:cb:ca:aa:6a:bd:2d:
         81:22:73:ea:41:08:7b:33:0a:c8:31:78:ea:8e:de:b2:3e:1d:
         e5:af:80:4d:26:2b:59:51:ec:79:98:0f:69:82:95:22:c5:b7:
         b7:d0:df:d5:88:2a:1e:2f:c7:31:2b:33:a4:ca:b3:bc:c2:6b:
         63:04
-----BEGIN CERTIFICATE-----
MIICkTCCAfqgAwIBAgIBADANBgkqhkiG9w0BAQUFADCBkDELMAkGA1UEBhMCS1Ix
DjAMBgNVBAgMBVNFT1VMMQ4wDAYDVQQHDAVTT0NITzETMBEGA1UECgwKU2VhcmNo
Q2FzdDETMBEGA1UECwwKU2VhcmNoIERldjEUMBIGA1UEAwwLTlRUX1Rlc3RfQ0Ex
ITAfBgkqhkiG9w0BCQEWEm50dEBzZWFyY2hjYXN0Lm5ldDAeFw0xNjEwMjYwMTM2
MzdaFw0xNzEwMjYwMTM2MzdaMH0xCzAJBgNVBAYTAktSMQ4wDAYDVQQIDAVTRU9V
TDETMBEGA1UECgwKU2VhcmNoQ2FzdDEQMA4GA1UECwwHV2ViIERldjEUMBIGA1UE
AwwLTlRUX1Rlc3RfQ0ExITAfBgkqhkiG9w0BCQEWEm50dEBzZWFyY2hjYXN0Lm5l
dDCBnzANBgkqhkiG9w0BAQEFAAOBjQAwgYkCgYEAsrOjq3qymUXUFix213B9eDz0
tSwaC+p2SkmbpQWAIn3rhGoi+Zj+YGtw1WZYOc5x/h8x1NJV4qH69iAY2gO/3ZoS
bkh26jhFjeNoAmy8bcLw5SAw4Fj3jX3HXNnv+y65gHbzC98hkm3jT+jYnDurDcQ6
lCJBg2w4yOz6YJnA6+ECAwEAAaMNMAswCQYDVR0TBAIwADANBgkqhkiG9w0BAQUF
AAOBgQDIhNxov5cocWI7AVOTNmBGZk2MjgrAGMTYz3EpDVKfAE3xQihgxN9MEtfA
WMcbmf5VDWn2Q8Shh7OUzIRpu3gJWBDLyqpqvS2BInPqQQh7MwrIMXjqjt6yPh3l
r4BNJitZUex5mA9pgpUixbe30N/ViCoeL8cxKzOkyrO8wmtjBA==
-----END CERTIFICATE-----
